; ModuleID = '58/729.c'
source_filename = "58/729.c"
target datalayout = "e-m:e-p270:32:32-p271:32:32-p272:64:64-i64:64-f80:128-n8:16:32:64-S128"
target triple = "x86_64-pc-linux-gnu"

@.str = private unnamed_addr constant [4 x i8] c"%d\0A\00", align 1
@.str.1 = private unnamed_addr constant [3 x i8] c"1\0A\00", align 1
@.str.2 = private unnamed_addr constant [3 x i8] c"0\0A\00", align 1

; Function Attrs: noinline nounwind uwtable
define dso_local i32 @main() #0 {
  %1 = alloca i32, align 4
  %2 = alloca i32, align 4
  %3 = alloca i32, align 4
  %4 = alloca i32, align 4
  %5 = alloca i32, align 4
  %6 = alloca [100 x i8], align 16
  store i32 0, i32* %1, align 4
  store i32 0, i32* %5, align 4
  %7 = call i32 (i8*, ...) @__isoc99_scanf(i8* getelementptr inbounds ([4 x i8], [4 x i8]* @.str, i64 0, i64 0), i32* %2)
  store i32 1, i32* %3, align 4
  br label %8

8:                                                ; preds = %109, %0
  %9 = load i32, i32* %3, align 4
  %10 = load i32, i32* %2, align 4
  %11 = icmp sle i32 %9, %10
  br i1 %11, label %12, label %112

12:                                               ; preds = %8
  store i32 0, i32* %5, align 4
  %13 = getelementptr inbounds [100 x i8], [100 x i8]* %6, i64 0, i64 0
  %14 = call i32 (i8*, ...) bitcast (i32 (...)* @gets to i32 (i8*, ...)*)(i8* %13)
  store i32 0, i32* %4, align 4
  br label %15

15:                                               ; preds = %73, %12
  %16 = load i32, i32* %4, align 4
  %17 = sext i32 %16 to i64
  %18 = getelementptr inbounds [100 x i8], [100 x i8]* %6, i64 0, i64 %17
  %19 = load i8, i8* %18, align 1
  %20 = sext i8 %19 to i32
  %21 = icmp ne i32 %20, 0
  br i1 %21, label %22, label %76

22:                                               ; preds = %15
  %23 = load i32, i32* %4, align 4
  %24 = sext i32 %23 to i64
  %25 = getelementptr inbounds [100 x i8], [100 x i8]* %6, i64 0, i64 %24
  %26 = load i8, i8* %25, align 1
  %27 = sext i8 %26 to i32
  %28 = icmp ne i32 %27, 95
  br i1 %28, label %29, label %72

29:                                               ; preds = %22
  %30 = load i32, i32* %4, align 4
  %31 = sext i32 %30 to i64
  %32 = getelementptr inbounds [100 x i8], [100 x i8]* %6, i64 0, i64 %31
  %33 = load i8, i8* %32, align 1
  %34 = sext i8 %33 to i32
  %35 = icmp slt i32 %34, 48
  br i1 %35, label %71, label %36

36:                                               ; preds = %29
  %37 = load i32, i32* %4, align 4
  %38 = sext i32 %37 to i64
  %39 = getelementptr inbounds [100 x i8], [100 x i8]* %6, i64 0, i64 %38
  %40 = load i8, i8* %39, align 1
  %41 = sext i8 %40 to i32
  %42 = icmp sgt i32 %41, 57
  br i1 %42, label %43, label %50

43:                                               ; preds = %36
  %44 = load i32, i32* %4, align 4
  %45 = sext i32 %44 to i64
  %46 = getelementptr inbounds [100 x i8], [100 x i8]* %6, i64 0, i64 %45
  %47 = load i8, i8* %46, align 1
  %48 = sext i8 %47 to i32
  %49 = icmp slt i32 %48, 65
  br i1 %49, label %71, label %50

50:                                               ; preds = %43, %36
  %51 = load i32, i32* %4, align 4
  %52 = sext i32 %51 to i64
  %53 = getelementptr inbounds [100 x i8], [100 x i8]* %6, i64 0, i64 %52
  %54 = load i8, i8* %53, align 1
  %55 = sext i8 %54 to i32
  %56 = icmp sgt i32 %55, 90
  br i1 %56, label %57, label %64

57:                                               ; preds = %50
  %58 = load i32, i32* %4, align 4
  %59 = sext i32 %58 to i64
  %60 = getelementptr inbounds [100 x i8], [100 x i8]* %6, i64 0, i64 %59
  %61 = load i8, i8* %60, align 1
  %62 = sext i8 %61 to i32
  %63 = icmp slt i32 %62, 97
  br i1 %63, label %71, label %64

64:                                               ; preds = %57, %50
  %65 = load i32, i32* %4, align 4
  %66 = sext i32 %65 to i64
  %67 = getelementptr inbounds [100 x i8], [100 x i8]* %6, i64 0, i64 %66
  %68 = load i8, i8* %67, align 1
  %69 = sext i8 %68 to i32
  %70 = icmp sgt i32 %69, 122
  br i1 %70, label %71, label %72

71:                                               ; preds = %64, %57, %43, %29
  store i32 1, i32* %5, align 4
  br label %72

72:                                               ; preds = %71, %64, %22
  br label %73

73:                                               ; preds = %72
  %74 = load i32, i32* %4, align 4
  %75 = add nsw i32 %74, 1
  store i32 %75, i32* %4, align 4
  br label %15

76:                                               ; preds = %15
  %77 = load i32, i32* %5, align 4
  %78 = icmp eq i32 %77, 0
  br i1 %78, label %79, label %106

79:                                               ; preds = %76
  %80 = getelementptr inbounds [100 x i8], [100 x i8]* %6, i64 0, i64 0
  %81 = load i8, i8* %80, align 16
  %82 = sext i8 %81 to i32
  %83 = icmp sgt i32 %82, 64
  br i1 %83, label %84, label %89

84:                                               ; preds = %79
  %85 = getelementptr inbounds [100 x i8], [100 x i8]* %6, i64 0, i64 0
  %86 = load i8, i8* %85, align 16
  %87 = sext i8 %86 to i32
  %88 = icmp slt i32 %87, 91
  br i1 %88, label %104, label %89

89:                                               ; preds = %84, %79
  %90 = getelementptr inbounds [100 x i8], [100 x i8]* %6, i64 0, i64 0
  %91 = load i8, i8* %90, align 16
  %92 = sext i8 %91 to i32
  %93 = icmp sgt i32 %92, 96
  br i1 %93, label %94, label %99

94:                                               ; preds = %89
  %95 = getelementptr inbounds [100 x i8], [100 x i8]* %6, i64 0, i64 0
  %96 = load i8, i8* %95, align 16
  %97 = sext i8 %96 to i32
  %98 = icmp slt i32 %97, 123
  br i1 %98, label %104, label %99

99:                                               ; preds = %94, %89
  %100 = getelementptr inbounds [100 x i8], [100 x i8]* %6, i64 0, i64 0
  %101 = load i8, i8* %100, align 16
  %102 = sext i8 %101 to i32
  %103 = icmp eq i32 %102, 95
  br i1 %103, label %104, label %106

104:                                              ; preds = %99, %94, %84
  %105 = call i32 (i8*, ...) @printf(i8* getelementptr inbounds ([3 x i8], [3 x i8]* @.str.1, i64 0, i64 0))
  br label %108

106:                                              ; preds = %99, %76
  %107 = call i32 (i8*, ...) @printf(i8* getelementptr inbounds ([3 x i8], [3 x i8]* @.str.2, i64 0, i64 0))
  br label %108

108:                                              ; preds = %106, %104
  br label %109

109:                                              ; preds = %108
  %110 = load i32, i32* %3, align 4
  %111 = add nsw i32 %110, 1
  store i32 %111, i32* %3, align 4
  br label %8

112:                                              ; preds = %8
  ret i32 0
}

declare dso_local i32 @__isoc99_scanf(i8*, ...) #1

declare dso_local i32 @gets(...) #1

declare dso_local i32 @printf(i8*, ...) #1


!llvm.module.flags = !{!0}
!llvm.ident = !{!1}

!0 = !{i32 1, !"wchar_size", i32 4}
!1 = !{!"clang version 10.0.0-4ubuntu1 "}
